; Function Attrs: nounwind uwtable
define range(i32 0, 2) i32 @ossl_quic_channel_trigger_txku(ptr noundef %0) local_unnamed_addr #0 {
  %2 = getelementptr inbounds nuw i8, ptr %0, i64 1568
  %3 = load i64, ptr %2, align 8
  %4 = and i64 %3, 115712
  %or.cond.not.i = icmp eq i64 %4, 50176
  br i1 %or.cond.not.i, label %5, label %ch_trigger_txku.exit

5:                                                ; preds = %1
  %6 = and i64 %3, 4294967296
  %.not.i.i = icmp eq i64 %6, 0
  br i1 %.not.i.i, label %txku_allowed.exit, label %7

7:                                                ; preds = %5
  %8 = getelementptr inbounds nuw i8, ptr %0, i64 1048
  %9 = load ptr, ptr %8, align 8, !tbaa !84
  %10 = tail call i64 @ossl_ackm_get_largest_acked(ptr noundef %9, i32 noundef 2) #15
  %11 = getelementptr inbounds nuw i8, ptr %0, i64 1552
  %12 = load i64, ptr %11, align 8, !tbaa !215
  %.not11.i.i = icmp ult i64 %10, %12
  br i1 %.not11.i.i, label %txku_allowed.exit, label %13

13:                                               ; preds = %7
  %14 = load ptr, ptr %8, align 8, !tbaa !84
  %15 = tail call i64 @ossl_ackm_get_pto_duration(ptr noundef %14) #15
  %16 = load i64, ptr %2, align 8
  %17 = and i64 %16, -4294967297
  store i64 %17, ptr %2, align 8
  %18 = getelementptr inbounds nuw i8, ptr %0, i64 1536
  %19 = load ptr, ptr %0, align 8, !tbaa !3
  %20 = tail call i64 @ossl_quic_port_get_time(ptr noundef %19) #15
  %21 = tail call { i64, i1 } @llvm.umul.with.overflow.i64(i64 %15, i64 3)
  %22 = extractvalue { i64, i1 } %21, 1
  %23 = extractvalue { i64, i1 } %21, 0
  %24 = tail call i64 @llvm.uadd.sat.i64(i64 %20, i64 %23)
  %.sroa.03.0.i.i.i = select i1 %22, i64 -1, i64 %24
  store i64 %.sroa.03.0.i.i.i, ptr %18, align 8, !tbaa !71
  br label %txku_allowed.exit

txku_allowed.exit:                                ; preds = %5, %7, %13
  %25 = load i64, ptr %2, align 8
  %26 = and i64 %25, 4294967296
  %.not.not = icmp eq i64 %26, 0
  br i1 %.not.not, label %27, label %ch_trigger_txku.exit

27:                                               ; preds = %txku_allowed.exit
  %28 = or i64 %25, 2147483648
  store i64 %28, ptr %2, align 8
  %29 = getelementptr inbounds nuw i8, ptr %0, i64 216
  %30 = load ptr, ptr %29, align 8, !tbaa !109
  %31 = tail call i64 @ossl_quic_tx_packetiser_get_next_pn(ptr noundef %30, i32 noundef 2) #15
  %32 = icmp ugt i64 %31, 4611686018427387903
  br i1 %32, label %37, label %33

33:                                               ; preds = %27
  %34 = getelementptr inbounds nuw i8, ptr %0, i64 1056
  %35 = load ptr, ptr %34, align 8, !tbaa !72
  %36 = tail call i32 @ossl_qtx_trigger_key_update(ptr noundef %35) #15
  %.not8.i = icmp eq i32 %36, 0
  br i1 %.not8.i, label %37, label %38

37:                                               ; preds = %33, %27
  tail call void @ossl_quic_channel_raise_protocol_error_loc(ptr noundef nonnull %0, i64 noundef 1, i64 noundef 0, ptr noundef nonnull @.str.111, ptr noundef null, ptr noundef nonnull @.str, i32 noundef 705, ptr noundef nonnull @__func__.ch_trigger_txku)
  br label %ch_trigger_txku.exit

38:                                               ; preds = %33
  %39 = load i64, ptr %2, align 8
  %40 = getelementptr inbounds nuw i8, ptr %0, i64 1552
  store i64 %31, ptr %40, align 8, !tbaa !215
  %41 = shl i64 %39, 5
  %42 = and i64 %41, 68719476736
  %43 = and i64 %39, -73014444033
  %44 = or disjoint i64 %43, %42
  %45 = or disjoint i64 %44, 4294967296
  store i64 %45, ptr %2, align 8
  br label %ch_trigger_txku.exit

ch_trigger_txku.exit:                             ; preds = %1, %38, %37, %txku_allowed.exit
  %.0 = phi i32 [ 0, %txku_allowed.exit ], [ 1, %37 ], [ 1, %38 ], [ 0, %1 ]
  ret i32 %.0
}